; Function Attrs: nounwind uwtable
define internal range(i32 -2147483648, 1) i32 @webm_chunk_write_header(ptr noundef %0) #0 {
  %2 = getelementptr inbounds nuw i8, ptr %0, i64 24
  %3 = load ptr, ptr %2, align 8, !tbaa !4
  %4 = getelementptr inbounds nuw i8, ptr %3, i64 48
  %5 = load ptr, ptr %4, align 8, !tbaa !24
  %6 = getelementptr inbounds nuw i8, ptr %0, i64 48
  %7 = load ptr, ptr %6, align 8, !tbaa !27
  %8 = load ptr, ptr %7, align 8, !tbaa !28
  %9 = getelementptr inbounds nuw i8, ptr %5, i64 48
  %10 = load ptr, ptr %9, align 8, !tbaa !27
  %11 = load ptr, ptr %10, align 8, !tbaa !28
  %12 = tail call i32 @avformat_write_header(ptr noundef %5, ptr noundef null) #6
  %13 = getelementptr inbounds nuw i8, ptr %5, i64 32
  %14 = tail call i32 @ff_format_io_close(ptr noundef %0, ptr noundef nonnull %13) #6
  %15 = getelementptr inbounds nuw i8, ptr %11, i64 408
  %16 = load i64, ptr %15, align 8, !tbaa !30
  %17 = getelementptr inbounds nuw i8, ptr %8, i64 408
  store i64 %16, ptr %17, align 8, !tbaa !30
  store i64 0, ptr %15, align 8, !tbaa !30
  %18 = getelementptr inbounds nuw i8, ptr %3, i64 56
  store i32 1, ptr %18, align 8, !tbaa !48
  %. = tail call i32 @llvm.smin.i32(i32 %12, i32 0)
  ret i32 %.
}